(dp1
S'mail'
p2
ccopy_reg
_reconstructor
p3
(ctwisted.plugin
CachedDropin
p4
c__builtin__
object
p5
NtRp6
(dp7
S'moduleName'
p8
S'applicationserver.transports.mail'
p9
sS'description'
p10
NsS'plugins'
p11
(lp12
g3
(ctwisted.plugin
CachedPlugin
p13
g5
NtRp14
(dp15
S'provided'
p16
(lp17
ctwisted.plugin
IPlugin
p18
acapplicationserver.itransport
ITransportFactory
p19
asS'dropin'
p20
g6
sS'name'
p21
S'factory'
p22
sg10
NsbasbsS'xmlrpc'
p23
g3
(g4
g5
NtRp24
(dp25
g8
S'applicationserver.transports.xmlrpc'
p26
sg10
Nsg11
(lp27
g3
(g13
g5
NtRp28
(dp29
g16
(lp30
g18
ag19
asg20
g24
sg21
g22
sg10
NsbasbsS'ssh'
p31
g3
(g4
g5
NtRp32
(dp33
g8
S'applicationserver.transports.ssh'
p34
sg10
Nsg11
(lp35
g3
(g13
g5
NtRp36
(dp37
g16
(lp38
g18
ag19
asg20
g32
sg21
S'ssh_transport'
p39
sg10
NsbasbsS'rest'
p40
g3
(g4
g5
NtRp41
(dp42
g8
S'applicationserver.transports.rest'
p43
sg10
Nsg11
(lp44
g3
(g13
g5
NtRp45
(dp46
g16
(lp47
g18
ag19
asg20
g41
sg21
S'rest_factory'
p48
sg10
NsbasbsS'amf'
p49
g3
(g4
g5
NtRp50
(dp51
g8
S'applicationserver.transports.amf'
p52
sg10
S'Adobe AMF transport for the pylabs Applicationserver'
p53
sg11
(lp54
g3
(g13
g5
NtRp55
(dp56
g16
(lp57
g18
ag19
asg20
g50
sg21
g22
sg10
Nsbasbs.